target datalayout = "e-m:e-p270:32:32-p271:32:32-p272:64:64-i64:64-i128:128-f80:128-n8:16:32:64-S128"
target triple = "x86_64-pc-linux-gnu"

%struct.expert_field = type { i32, i32 }
%struct.wscbor_chunk_t = type { ptr, i32, i32, i32, ptr, ptr, i32, i8, i64 }
%struct._wscbor_chunk_priv_t = type { ptr, ptr, ptr }

@ei_cbor_wrong_type = internal global %struct.expert_field zeroinitializer, align 4
@.str.10 = private unnamed_addr constant [37 x i8] c"Item has major type %d, should be %d\00", align 1

; Function Attrs: null_pointer_is_valid sspstrong uwtable
define zeroext i1 @wscbor_require_major_type(ptr noundef %0, i32 noundef %1) #0 {
  %3 = alloca i1, align 1
  %4 = alloca ptr, align 8
  %5 = alloca i32, align 4
  store ptr %0, ptr %4, align 8
  store i32 %1, ptr %5, align 4
  %6 = load ptr, ptr %4, align 8
  %7 = getelementptr inbounds nuw %struct.wscbor_chunk_t, ptr %6, i32 0, i32 6
  %8 = load i32, ptr %7, align 8
  %9 = load i32, ptr %5, align 4
  %10 = icmp eq i32 %8, %9
  br i1 %10, label %11, label %12

11:                                               ; preds = %2
  store i1 true, ptr %3, align 1
  br label %26

12:                                               ; preds = %2
  %13 = load ptr, ptr %4, align 8
  %14 = getelementptr inbounds nuw %struct.wscbor_chunk_t, ptr %13, i32 0, i32 4
  %15 = load ptr, ptr %14, align 8
  %16 = load ptr, ptr %4, align 8
  %17 = getelementptr inbounds nuw %struct.wscbor_chunk_t, ptr %16, i32 0, i32 0
  %18 = load ptr, ptr %17, align 8
  %19 = getelementptr inbounds nuw %struct._wscbor_chunk_priv_t, ptr %18, i32 0, i32 0
  %20 = load ptr, ptr %19, align 8
  %21 = load ptr, ptr %4, align 8
  %22 = getelementptr inbounds nuw %struct.wscbor_chunk_t, ptr %21, i32 0, i32 6
  %23 = load i32, ptr %22, align 8
  %24 = load i32, ptr %5, align 4
  %25 = call ptr (ptr, ptr, ptr, ...) @wscbor_error_new(ptr noundef %20, ptr noundef @ei_cbor_wrong_type, ptr noundef @.str.10, i32 noundef %23, i32 noundef %24)
  call void @wmem_list_append(ptr noundef %15, ptr noundef %25)
  store i1 false, ptr %3, align 1
  br label %26

26:                                               ; preds = %12, %11
  %27 = load i1, ptr %3, align 1
  ret i1 %27
}