; Function Attrs: null_pointer_is_valid sspstrong uwtable
define noundef zeroext i1 @wscbor_require_major_type(ptr noundef readonly captures(none) %0, i32 noundef %1) local_unnamed_addr #0 {
  %3 = getelementptr inbounds nuw i8, ptr %0, i64 40
  %4 = load i32, ptr %3, align 8
  %5 = icmp eq i32 %4, %1
  br i1 %5, label %12, label %6

6:                                                ; preds = %2
  %7 = getelementptr inbounds nuw i8, ptr %0, i64 24
  %8 = load ptr, ptr %7, align 8
  %9 = load ptr, ptr %0, align 8
  %10 = load ptr, ptr %9, align 8
  %11 = tail call ptr (ptr, ptr, ptr, ...) @wscbor_error_new(ptr noundef %10, ptr noundef nonnull @ei_cbor_wrong_type, ptr noundef nonnull @.str.10, i32 noundef %4, i32 noundef %1)
  tail call void @wmem_list_append(ptr noundef %8, ptr noundef %11)
  br label %12

12:                                               ; preds = %2, %6
  ret i1 %5
}